target datalayout = "e-m:e-p270:32:32-p271:32:32-p272:64:64-i64:64-i128:128-f80:128-n8:16:32:64-S128"
target triple = "x86_64-pc-linux-gnu"

%struct.IDAMemRec = type { ptr, double, ptr, ptr, i32, double, double, ptr, i32, i32, ptr, ptr, i32, i32, i32, ptr, ptr, i32, i32, double, double, ptr, i32, i32, i32, i32, ptr, ptr, i32, ptr, ptr, ptr, i32, double, i32, i32, double, ptr, ptr, ptr, i32, ptr, ptr, i32, i32, i32, double, ptr, ptr, ptr, [6 x ptr], [6 x double], [6 x double], [6 x double], [6 x double], [6 x double], ptr, ptr, ptr, ptr, ptr, ptr, ptr, ptr, ptr, ptr, ptr, ptr, ptr, ptr, ptr, ptr, ptr, [6 x ptr], ptr, ptr, ptr, ptr, [6 x ptr], ptr, ptr, ptr, ptr, ptr, ptr, ptr, ptr, ptr, ptr, ptr, ptr, ptr, ptr, ptr, ptr, [6 x ptr], ptr, ptr, ptr, ptr, ptr, double, ptr, ptr, i32, i32, i32, i32, i32, i32, i32, i32, double, double, double, i32, double, i32, i32, i32, i32, i32, double, double, double, double, double, double, double, double, double, double, double, double, double, double, double, double, double, i32, i32, i32, i32, i64, double, double, double, double, double, double, double, double, double, i64, i64, i64, i64, i64, i64, i64, i64, i64, i64, i64, i64, i64, i64, i64, i64, i64, i64, i64, i64, i64, i64, i64, i64, i64, i64, double, i32, i32, i32, i32, i32, i32, i32, i32, i32, i32, i32, i32, i32, ptr, i32, ptr, i32, ptr, i32, ptr, ptr, ptr, ptr, ptr, ptr, i32, i32, ptr, ptr, ptr, ptr, ptr, ptr, ptr, double, i32, i32, ptr, i32, ptr, ptr, double, double, double, ptr, ptr, ptr, double, double, i32, i32, i64, ptr, i32, ptr, [5 x double], ptr, ptr, i32, ptr, i32 }

; Function Attrs: nounwind uwtable
define void @IDAFree(ptr noundef %0) #0 {
  %2 = alloca ptr, align 8
  %3 = alloca ptr, align 8
  %4 = alloca i32, align 4
  store ptr %0, ptr %2, align 8, !tbaa !126
  call void @llvm.lifetime.start.p0(i64 8, ptr %3) #10
  %5 = load ptr, ptr %2, align 8, !tbaa !126
  %6 = load ptr, ptr %5, align 8, !tbaa !126
  %7 = icmp eq ptr %6, null
  br i1 %7, label %8, label %9

8:                                                ; preds = %1
  store i32 1, ptr %4, align 4
  br label %96

9:                                                ; preds = %1
  %10 = load ptr, ptr %2, align 8, !tbaa !126
  %11 = load ptr, ptr %10, align 8, !tbaa !126
  store ptr %11, ptr %3, align 8, !tbaa !8
  %12 = load ptr, ptr %3, align 8, !tbaa !8
  call void @IDAFreeVectors(ptr noundef %12)
  %13 = load ptr, ptr %3, align 8, !tbaa !8
  call void @IDAQuadFree(ptr noundef %13)
  %14 = load ptr, ptr %3, align 8, !tbaa !8
  call void @IDASensFree(ptr noundef %14)
  %15 = load ptr, ptr %3, align 8, !tbaa !8
  call void @IDAQuadSensFree(ptr noundef %15)
  %16 = load ptr, ptr %3, align 8, !tbaa !8
  call void @IDAAdjFree(ptr noundef %16)
  %17 = load ptr, ptr %3, align 8, !tbaa !8
  %18 = getelementptr inbounds nuw %struct.IDAMemRec, ptr %17, i32 0, i32 194
  %19 = load i32, ptr %18, align 8, !tbaa !101
  %20 = icmp ne i32 %19, 0
  br i1 %20, label %21, label %30

21:                                               ; preds = %9
  %22 = load ptr, ptr %3, align 8, !tbaa !8
  %23 = getelementptr inbounds nuw %struct.IDAMemRec, ptr %22, i32 0, i32 193
  %24 = load ptr, ptr %23, align 8, !tbaa !100
  %25 = call i32 @SUNNonlinSolFree(ptr noundef %24)
  %26 = load ptr, ptr %3, align 8, !tbaa !8
  %27 = getelementptr inbounds nuw %struct.IDAMemRec, ptr %26, i32 0, i32 194
  store i32 0, ptr %27, align 8, !tbaa !101
  %28 = load ptr, ptr %3, align 8, !tbaa !8
  %29 = getelementptr inbounds nuw %struct.IDAMemRec, ptr %28, i32 0, i32 193
  store ptr null, ptr %29, align 8, !tbaa !100
  br label %30

30:                                               ; preds = %21, %9
  %31 = load ptr, ptr %3, align 8, !tbaa !8
  %32 = getelementptr inbounds nuw %struct.IDAMemRec, ptr %31, i32 0, i32 212
  %33 = load ptr, ptr %32, align 8, !tbaa !143
  %34 = icmp ne ptr %33, null
  br i1 %34, label %35, label %41

35:                                               ; preds = %30
  %36 = load ptr, ptr %3, align 8, !tbaa !8
  %37 = getelementptr inbounds nuw %struct.IDAMemRec, ptr %36, i32 0, i32 212
  %38 = load ptr, ptr %37, align 8, !tbaa !143
  %39 = load ptr, ptr %3, align 8, !tbaa !8
  %40 = call i32 %38(ptr noundef %39)
  br label %41

41:                                               ; preds = %35, %30
  %42 = load ptr, ptr %3, align 8, !tbaa !8
  %43 = getelementptr inbounds nuw %struct.IDAMemRec, ptr %42, i32 0, i32 218
  %44 = load i32, ptr %43, align 8, !tbaa !165
  %45 = icmp sgt i32 %44, 0
  br i1 %45, label %46, label %77

46:                                               ; preds = %41
  %47 = load ptr, ptr %3, align 8, !tbaa !8
  %48 = getelementptr inbounds nuw %struct.IDAMemRec, ptr %47, i32 0, i32 224
  %49 = load ptr, ptr %48, align 8, !tbaa !159
  call void @free(ptr noundef %49) #10
  %50 = load ptr, ptr %3, align 8, !tbaa !8
  %51 = getelementptr inbounds nuw %struct.IDAMemRec, ptr %50, i32 0, i32 224
  store ptr null, ptr %51, align 8, !tbaa !159
  %52 = load ptr, ptr %3, align 8, !tbaa !8
  %53 = getelementptr inbounds nuw %struct.IDAMemRec, ptr %52, i32 0, i32 225
  %54 = load ptr, ptr %53, align 8, !tbaa !160
  call void @free(ptr noundef %54) #10
  %55 = load ptr, ptr %3, align 8, !tbaa !8
  %56 = getelementptr inbounds nuw %struct.IDAMemRec, ptr %55, i32 0, i32 225
  store ptr null, ptr %56, align 8, !tbaa !160
  %57 = load ptr, ptr %3, align 8, !tbaa !8
  %58 = getelementptr inbounds nuw %struct.IDAMemRec, ptr %57, i32 0, i32 226
  %59 = load ptr, ptr %58, align 8, !tbaa !161
  call void @free(ptr noundef %59) #10
  %60 = load ptr, ptr %3, align 8, !tbaa !8
  %61 = getelementptr inbounds nuw %struct.IDAMemRec, ptr %60, i32 0, i32 226
  store ptr null, ptr %61, align 8, !tbaa !161
  %62 = load ptr, ptr %3, align 8, !tbaa !8
  %63 = getelementptr inbounds nuw %struct.IDAMemRec, ptr %62, i32 0, i32 219
  %64 = load ptr, ptr %63, align 8, !tbaa !162
  call void @free(ptr noundef %64) #10
  %65 = load ptr, ptr %3, align 8, !tbaa !8
  %66 = getelementptr inbounds nuw %struct.IDAMemRec, ptr %65, i32 0, i32 219
  store ptr null, ptr %66, align 8, !tbaa !162
  %67 = load ptr, ptr %3, align 8, !tbaa !8
  %68 = getelementptr inbounds nuw %struct.IDAMemRec, ptr %67, i32 0, i32 220
  %69 = load ptr, ptr %68, align 8, !tbaa !163
  call void @free(ptr noundef %69) #10
  %70 = load ptr, ptr %3, align 8, !tbaa !8
  %71 = getelementptr inbounds nuw %struct.IDAMemRec, ptr %70, i32 0, i32 220
  store ptr null, ptr %71, align 8, !tbaa !163
  %72 = load ptr, ptr %3, align 8, !tbaa !8
  %73 = getelementptr inbounds nuw %struct.IDAMemRec, ptr %72, i32 0, i32 232
  %74 = load ptr, ptr %73, align 8, !tbaa !166
  call void @free(ptr noundef %74) #10
  %75 = load ptr, ptr %3, align 8, !tbaa !8
  %76 = getelementptr inbounds nuw %struct.IDAMemRec, ptr %75, i32 0, i32 232
  store ptr null, ptr %76, align 8, !tbaa !166
  br label %77

77:                                               ; preds = %46, %41
  %78 = load ptr, ptr %3, align 8, !tbaa !8
  %79 = getelementptr inbounds nuw %struct.IDAMemRec, ptr %78, i32 0, i32 234
  %80 = load ptr, ptr %79, align 8, !tbaa !134
  call void @free(ptr noundef %80) #10
  %81 = load ptr, ptr %3, align 8, !tbaa !8
  %82 = getelementptr inbounds nuw %struct.IDAMemRec, ptr %81, i32 0, i32 234
  store ptr null, ptr %82, align 8, !tbaa !134
  %83 = load ptr, ptr %3, align 8, !tbaa !8
  %84 = getelementptr inbounds nuw %struct.IDAMemRec, ptr %83, i32 0, i32 236
  %85 = load ptr, ptr %84, align 8, !tbaa !135
  call void @free(ptr noundef %85) #10
  %86 = load ptr, ptr %3, align 8, !tbaa !8
  %87 = getelementptr inbounds nuw %struct.IDAMemRec, ptr %86, i32 0, i32 236
  store ptr null, ptr %87, align 8, !tbaa !135
  %88 = load ptr, ptr %3, align 8, !tbaa !8
  %89 = getelementptr inbounds nuw %struct.IDAMemRec, ptr %88, i32 0, i32 237
  %90 = load ptr, ptr %89, align 8, !tbaa !136
  call void @free(ptr noundef %90) #10
  %91 = load ptr, ptr %3, align 8, !tbaa !8
  %92 = getelementptr inbounds nuw %struct.IDAMemRec, ptr %91, i32 0, i32 237
  store ptr null, ptr %92, align 8, !tbaa !136
  %93 = load ptr, ptr %2, align 8, !tbaa !126
  %94 = load ptr, ptr %93, align 8, !tbaa !126
  call void @free(ptr noundef %94) #10
  %95 = load ptr, ptr %2, align 8, !tbaa !126
  store ptr null, ptr %95, align 8, !tbaa !126
  store i32 0, ptr %4, align 4
  br label %96

96:                                               ; preds = %77, %8
  call void @llvm.lifetime.end.p0(i64 8, ptr %3) #10
  %97 = load i32, ptr %4, align 4
  switch i32 %97, label %99 [
    i32 0, label %98
    i32 1, label %98
  ]

98:                                               ; preds = %96, %96
  ret void

99:                                               ; preds = %96
  unreachable
}