; Function Attrs: nounwind uwtable
define void @IDAFree(ptr noundef captures(none) %0) local_unnamed_addr #0 {
  %2 = load ptr, ptr %0, align 8, !tbaa !258
  %3 = icmp eq ptr %2, null
  br i1 %3, label %41, label %4

4:                                                ; preds = %1
  tail call fastcc void @IDAFreeVectors(ptr noundef %2)
  tail call void @IDAQuadFree(ptr noundef nonnull %2)
  tail call void @IDASensFree(ptr noundef nonnull %2)
  tail call void @IDAQuadSensFree(ptr noundef nonnull %2)
  tail call void @IDAAdjFree(ptr noundef nonnull %2) #14
  %5 = getelementptr inbounds nuw i8, ptr %2, i64 1744
  %6 = load i32, ptr %5, align 8, !tbaa !68
  %.not = icmp eq i32 %6, 0
  br i1 %.not, label %11, label %7

7:                                                ; preds = %4
  %8 = getelementptr inbounds nuw i8, ptr %2, i64 1736
  %9 = load ptr, ptr %8, align 8, !tbaa !67
  %10 = tail call i32 @SUNNonlinSolFree(ptr noundef %9) #14
  store i32 0, ptr %5, align 8, !tbaa !68
  store ptr null, ptr %8, align 8, !tbaa !67
  br label %11

11:                                               ; preds = %7, %4
  %12 = getelementptr inbounds nuw i8, ptr %2, i64 1880
  %13 = load ptr, ptr %12, align 8, !tbaa !259
  %.not36 = icmp eq ptr %13, null
  br i1 %.not36, label %16, label %14

14:                                               ; preds = %11
  %15 = tail call i32 %13(ptr noundef nonnull %2) #14
  br label %16

16:                                               ; preds = %14, %11
  %17 = getelementptr inbounds nuw i8, ptr %2, i64 1920
  %18 = load i32, ptr %17, align 8, !tbaa !137
  %19 = icmp sgt i32 %18, 0
  br i1 %19, label %20, label %33

20:                                               ; preds = %16
  %21 = getelementptr inbounds nuw i8, ptr %2, i64 1968
  %22 = load ptr, ptr %21, align 8, !tbaa !204
  tail call void @free(ptr noundef %22) #14
  store ptr null, ptr %21, align 8, !tbaa !204
  %23 = getelementptr inbounds nuw i8, ptr %2, i64 1976
  %24 = load ptr, ptr %23, align 8, !tbaa !205
  tail call void @free(ptr noundef %24) #14
  store ptr null, ptr %23, align 8, !tbaa !205
  %25 = getelementptr inbounds nuw i8, ptr %2, i64 1984
  %26 = load ptr, ptr %25, align 8, !tbaa !206
  tail call void @free(ptr noundef %26) #14
  store ptr null, ptr %25, align 8, !tbaa !206
  %27 = getelementptr inbounds nuw i8, ptr %2, i64 1928
  %28 = load ptr, ptr %27, align 8, !tbaa !207
  tail call void @free(ptr noundef %28) #14
  store ptr null, ptr %27, align 8, !tbaa !207
  %29 = getelementptr inbounds nuw i8, ptr %2, i64 1936
  %30 = load ptr, ptr %29, align 8, !tbaa !208
  tail call void @free(ptr noundef %30) #14
  store ptr null, ptr %29, align 8, !tbaa !208
  %31 = getelementptr inbounds nuw i8, ptr %2, i64 2024
  %32 = load ptr, ptr %31, align 8, !tbaa !209
  tail call void @free(ptr noundef %32) #14
  store ptr null, ptr %31, align 8, !tbaa !209
  br label %33

33:                                               ; preds = %20, %16
  %34 = getelementptr inbounds nuw i8, ptr %2, i64 2040
  %35 = load ptr, ptr %34, align 8, !tbaa !122
  tail call void @free(ptr noundef %35) #14
  store ptr null, ptr %34, align 8, !tbaa !122
  %36 = getelementptr inbounds nuw i8, ptr %2, i64 2088
  %37 = load ptr, ptr %36, align 8, !tbaa !123
  tail call void @free(ptr noundef %37) #14
  store ptr null, ptr %36, align 8, !tbaa !123
  %38 = getelementptr inbounds nuw i8, ptr %2, i64 2096
  %39 = load ptr, ptr %38, align 8, !tbaa !124
  tail call void @free(ptr noundef %39) #14
  store ptr null, ptr %38, align 8, !tbaa !124
  %40 = load ptr, ptr %0, align 8, !tbaa !258
  tail call void @free(ptr noundef %40) #14
  store ptr null, ptr %0, align 8, !tbaa !258
  br label %41

41:                                               ; preds = %1, %33
  ret void
}